; Function Attrs: nounwind uwtable
define i32 @pmix_bfrops_base_unpack_timeval(ptr noundef %0, ptr noundef %1, ptr noundef writeonly captures(none) %2, ptr noundef readonly captures(none) %3, i16 noundef zeroext %4) local_unnamed_addr #0 {
  %6 = alloca i32, align 4
  %7 = alloca [2 x i64], align 16
  call void @llvm.lifetime.start.p0(i64 4, ptr nonnull %6) #10
  call void @llvm.lifetime.start.p0(i64 16, ptr nonnull %7) #10
  %8 = load i32, ptr getelementptr inbounds nuw (i8, ptr @pmix_bfrops_base_framework, i64 76), align 4, !tbaa !7
  %or.cond = icmp ult i32 %8, 64
  br i1 %or.cond, label %9, label %16

9:                                                ; preds = %5
  %10 = zext nneg i32 %8 to i64
  %11 = getelementptr inbounds nuw [0 x %struct.pmix_output_desc_t], ptr @pmix_output_info, i64 0, i64 %10, i32 2
  %12 = load i32, ptr %11, align 4, !tbaa !19
  %13 = icmp sgt i32 %12, 19
  br i1 %13, label %14, label %16

14:                                               ; preds = %9
  %15 = load i32, ptr %3, align 4, !tbaa !3
  tail call void (i32, ptr, ...) @pmix_output(i32 noundef %8, ptr noundef nonnull @.str.14, i32 noundef %15) #10
  br label %16

16:                                               ; preds = %14, %9, %5
  %17 = getelementptr inbounds nuw i8, ptr %0, i64 152
  %18 = load i32, ptr %3, align 4, !tbaa !3
  %19 = icmp sgt i32 %18, 0
  br i1 %19, label %.lr.ph, label %.thread

.lr.ph:                                           ; preds = %16
  %20 = getelementptr inbounds nuw i8, ptr %0, i64 128
  %21 = getelementptr inbounds nuw i8, ptr %7, i64 8
  br label %22

22:                                               ; preds = %.lr.ph, %32
  %indvars.iv = phi i64 [ 0, %.lr.ph ], [ %indvars.iv.next, %32 ]
  store i32 2, ptr %6, align 4, !tbaa !3
  %23 = load i32, ptr %20, align 8, !tbaa !26
  %.not.i = icmp sgt i32 %23, 10
  br i1 %.not.i, label %pmix_pointer_array_get_item.exit, label %.thread, !prof !29

pmix_pointer_array_get_item.exit:                 ; preds = %22
  %24 = load ptr, ptr %17, align 8, !tbaa !30
  %25 = getelementptr inbounds nuw i8, ptr %24, i64 80
  %26 = load ptr, ptr %25, align 8, !tbaa !31
  %27 = icmp eq ptr %26, null
  br i1 %27, label %.thread, label %28

28:                                               ; preds = %pmix_pointer_array_get_item.exit
  %29 = getelementptr inbounds nuw i8, ptr %26, i64 144
  %30 = load ptr, ptr %29, align 8, !tbaa !32
  %31 = call i32 %30(ptr noundef nonnull %0, ptr noundef %1, ptr noundef nonnull %7, ptr noundef nonnull %6, i16 noundef zeroext 10) #10
  %.not = icmp eq i32 %31, 0
  br i1 %.not, label %32, label %.thread

32:                                               ; preds = %28
  %33 = load i64, ptr %7, align 16, !tbaa !44
  %34 = load i64, ptr %21, align 8, !tbaa !44
  %35 = getelementptr inbounds nuw %struct.timeval, ptr %2, i64 %indvars.iv
  store i64 %33, ptr %35, align 8
  %.sroa.4.0..sroa_idx = getelementptr inbounds nuw i8, ptr %35, i64 8
  store i64 %34, ptr %.sroa.4.0..sroa_idx, align 8
  %indvars.iv.next = add nuw nsw i64 %indvars.iv, 1
  %36 = load i32, ptr %3, align 4, !tbaa !3
  %37 = sext i32 %36 to i64
  %38 = icmp slt i64 %indvars.iv.next, %37
  br i1 %38, label %22, label %.thread, !llvm.loop !67

.thread:                                          ; preds = %28, %32, %pmix_pointer_array_get_item.exit, %22, %16
  %.0 = phi i32 [ 0, %16 ], [ -16, %22 ], [ -16, %pmix_pointer_array_get_item.exit ], [ 0, %32 ], [ %31, %28 ]
  call void @llvm.lifetime.end.p0(i64 16, ptr nonnull %7) #10
  call void @llvm.lifetime.end.p0(i64 4, ptr nonnull %6) #10
  ret i32 %.0
}